target datalayout = "e-m:e-p270:32:32-p271:32:32-p272:64:64-i64:64-i128:128-f80:128-n8:16:32:64-S128"
target triple = "x86_64-pc-linux-gnu"

@gv_sort_compar = internal thread_local global ptr null, align 8
@gv_sort_arg = internal thread_local global ptr null, align 8

; Function Attrs: inlinehint nounwind uwtable
define internal void @gv_sort(ptr noundef %0, i64 noundef %1, i64 noundef %2, ptr noundef %3, ptr noundef %4) #4 {
  %6 = alloca ptr, align 8
  %7 = alloca i64, align 8
  %8 = alloca i64, align 8
  %9 = alloca ptr, align 8
  %10 = alloca ptr, align 8
  store ptr %0, ptr %6, align 8, !tbaa !3
  store i64 %1, ptr %7, align 8, !tbaa !11
  store i64 %2, ptr %8, align 8, !tbaa !11
  store ptr %3, ptr %9, align 8, !tbaa !3
  store ptr %4, ptr %10, align 8, !tbaa !3
  %11 = load ptr, ptr %9, align 8, !tbaa !3
  %12 = call align 8 ptr @llvm.threadlocal.address.p0(ptr align 8 @gv_sort_compar)
  store ptr %11, ptr %12, align 8, !tbaa !3
  %13 = load ptr, ptr %10, align 8, !tbaa !3
  %14 = call align 8 ptr @llvm.threadlocal.address.p0(ptr align 8 @gv_sort_arg)
  store ptr %13, ptr %14, align 8, !tbaa !3
  %15 = load i64, ptr %7, align 8, !tbaa !11
  %16 = icmp ugt i64 %15, 1
  br i1 %16, label %17, label %21

17:                                               ; preds = %5
  %18 = load ptr, ptr %6, align 8, !tbaa !3
  %19 = load i64, ptr %7, align 8, !tbaa !11
  %20 = load i64, ptr %8, align 8, !tbaa !11
  call void @qsort(ptr noundef %18, i64 noundef %19, i64 noundef %20, ptr noundef @gv_sort_compar_wrapper)
  br label %21

21:                                               ; preds = %17, %5
  %22 = call align 8 ptr @llvm.threadlocal.address.p0(ptr align 8 @gv_sort_compar)
  store ptr null, ptr %22, align 8, !tbaa !3
  %23 = call align 8 ptr @llvm.threadlocal.address.p0(ptr align 8 @gv_sort_arg)
  store ptr null, ptr %23, align 8, !tbaa !3
  ret void
}

; Function Attrs: nounwind uwtable
define void @quicksort_placef(ptr noundef %0, ptr noundef %1, i32 noundef %2, i32 noundef %3) #0 {
  %5 = alloca ptr, align 8
  %6 = alloca ptr, align 8
  %7 = alloca i32, align 4
  %8 = alloca i32, align 4
  store ptr %0, ptr %5, align 8, !tbaa !28
  store ptr %1, ptr %6, align 8, !tbaa !9
  store i32 %2, ptr %7, align 4, !tbaa !7
  store i32 %3, ptr %8, align 4, !tbaa !7
  %9 = load i32, ptr %7, align 4, !tbaa !7
  %10 = load i32, ptr %8, align 4, !tbaa !7
  %11 = icmp slt i32 %9, %10
  br i1 %11, label %12, label %23

12:                                               ; preds = %4
  %13 = load ptr, ptr %6, align 8, !tbaa !9
  %14 = load i32, ptr %7, align 4, !tbaa !7
  %15 = sext i32 %14 to i64
  %16 = getelementptr inbounds i32, ptr %13, i64 %15
  %17 = load i32, ptr %8, align 4, !tbaa !7
  %18 = load i32, ptr %7, align 4, !tbaa !7
  %19 = sub nsw i32 %17, %18
  %20 = add nsw i32 %19, 1
  %21 = sext i32 %20 to i64
  %22 = load ptr, ptr %5, align 8, !tbaa !28
  call void @gv_sort(ptr noundef %16, i64 noundef %21, i64 noundef 4, ptr noundef @fcmpf, ptr noundef %22)
  br label %23

23:                                               ; preds = %12, %4
  ret void
}